target datalayout = "e-m:e-p270:32:32-p271:32:32-p272:64:64-i64:64-i128:128-f80:128-n8:16:32:64-S128"
target triple = "x86_64-pc-linux-gnu"

%struct.FunctionCallInfoBaseData = type { ptr, ptr, ptr, i32, i8, i16, [0 x %struct.NullableDatum] }
%struct.NullableDatum = type { i64, i8 }
%struct.varattrib_1b = type { i8, [0 x i8] }
%struct.varattrib_1b_e = type { i8, i8, [0 x i8] }
%struct.anon = type { i32, [0 x i8] }

@.str = private unnamed_addr constant [30 x i8] c"could not compute %s hash: %s\00", align 1
@.str.1 = private unnamed_addr constant [4 x i8] c"MD5\00", align 1
@.str.2 = private unnamed_addr constant [18 x i8] c"cryptohashfuncs.c\00", align 1
@__func__.md5_text = private unnamed_addr constant [9 x i8] c"md5_text\00", align 1

; Function Attrs: inlinehint nounwind uwtable
define internal i64 @PointerGetDatum(ptr noundef %0) #3 {
  %2 = alloca ptr, align 8
  store ptr %0, ptr %2, align 8
  %3 = load ptr, ptr %2, align 8
  %4 = ptrtoint ptr %3 to i64
  ret i64 %4
}

; Function Attrs: inlinehint nounwind uwtable
define internal ptr @DatumGetPointer(i64 noundef %0) #3 {
  %2 = alloca i64, align 8
  store i64 %0, ptr %2, align 8
  %3 = load i64, ptr %2, align 8
  %4 = inttoptr i64 %3 to ptr
  ret ptr %4
}

; Function Attrs: nounwind uwtable
define dso_local i64 @md5_text(ptr noundef %0) #0 {
  %2 = alloca ptr, align 8
  %3 = alloca ptr, align 8
  %4 = alloca i64, align 8
  %5 = alloca [33 x i8], align 16
  %6 = alloca ptr, align 8
  store ptr %0, ptr %2, align 8
  call void @llvm.lifetime.start.p0(i64 8, ptr %3) #5
  %7 = load ptr, ptr %2, align 8
  %8 = getelementptr inbounds nuw %struct.FunctionCallInfoBaseData, ptr %7, i32 0, i32 6
  %9 = getelementptr inbounds [0 x %struct.NullableDatum], ptr %8, i64 0, i64 0
  %10 = getelementptr inbounds nuw %struct.NullableDatum, ptr %9, i32 0, i32 0
  %11 = load i64, ptr %10, align 8
  %12 = call ptr @DatumGetPointer(i64 noundef %11)
  %13 = call ptr @pg_detoast_datum_packed(ptr noundef %12)
  store ptr %13, ptr %3, align 8
  call void @llvm.lifetime.start.p0(i64 8, ptr %4) #5
  call void @llvm.lifetime.start.p0(i64 33, ptr %5) #5
  call void @llvm.lifetime.start.p0(i64 8, ptr %6) #5
  store ptr null, ptr %6, align 8
  %14 = load ptr, ptr %3, align 8
  %15 = getelementptr inbounds nuw %struct.varattrib_1b, ptr %14, i32 0, i32 0
  %16 = load i8, ptr %15, align 1
  %17 = zext i8 %16 to i32
  %18 = icmp eq i32 %17, 1
  br i1 %18, label %19, label %47

19:                                               ; preds = %1
  %20 = load ptr, ptr %3, align 8
  %21 = getelementptr inbounds nuw %struct.varattrib_1b_e, ptr %20, i32 0, i32 1
  %22 = load i8, ptr %21, align 1
  %23 = zext i8 %22 to i32
  %24 = icmp eq i32 %23, 1
  br i1 %24, label %25, label %26

25:                                               ; preds = %19
  br label %43

26:                                               ; preds = %19
  %27 = load ptr, ptr %3, align 8
  %28 = getelementptr inbounds nuw %struct.varattrib_1b_e, ptr %27, i32 0, i32 1
  %29 = load i8, ptr %28, align 1
  %30 = zext i8 %29 to i32
  %31 = and i32 %30, -2
  %32 = icmp eq i32 %31, 2
  br i1 %32, label %33, label %34

33:                                               ; preds = %26
  br label %41

34:                                               ; preds = %26
  %35 = load ptr, ptr %3, align 8
  %36 = getelementptr inbounds nuw %struct.varattrib_1b_e, ptr %35, i32 0, i32 1
  %37 = load i8, ptr %36, align 1
  %38 = zext i8 %37 to i32
  %39 = icmp eq i32 %38, 18
  %40 = select i1 %39, i64 16, i64 0
  br label %41

41:                                               ; preds = %34, %33
  %42 = phi i64 [ 8, %33 ], [ %40, %34 ]
  br label %43

43:                                               ; preds = %41, %25
  %44 = phi i64 [ 8, %25 ], [ %42, %41 ]
  %45 = add i64 2, %44
  %46 = sub i64 %45, 2
  br label %73

47:                                               ; preds = %1
  %48 = load ptr, ptr %3, align 8
  %49 = getelementptr inbounds nuw %struct.varattrib_1b, ptr %48, i32 0, i32 0
  %50 = load i8, ptr %49, align 1
  %51 = zext i8 %50 to i32
  %52 = and i32 %51, 1
  %53 = icmp eq i32 %52, 1
  br i1 %53, label %54, label %63

54:                                               ; preds = %47
  %55 = load ptr, ptr %3, align 8
  %56 = getelementptr inbounds nuw %struct.varattrib_1b, ptr %55, i32 0, i32 0
  %57 = load i8, ptr %56, align 1
  %58 = zext i8 %57 to i32
  %59 = ashr i32 %58, 1
  %60 = and i32 %59, 127
  %61 = sext i32 %60 to i64
  %62 = sub i64 %61, 1
  br label %71

63:                                               ; preds = %47
  %64 = load ptr, ptr %3, align 8
  %65 = getelementptr inbounds nuw %struct.anon, ptr %64, i32 0, i32 0
  %66 = load i32, ptr %65, align 4
  %67 = lshr i32 %66, 2
  %68 = and i32 %67, 1073741823
  %69 = sub i32 %68, 4
  %70 = zext i32 %69 to i64
  br label %71

71:                                               ; preds = %63, %54
  %72 = phi i64 [ %62, %54 ], [ %70, %63 ]
  br label %73

73:                                               ; preds = %71, %43
  %74 = phi i64 [ %46, %43 ], [ %72, %71 ]
  store i64 %74, ptr %4, align 8
  %75 = load ptr, ptr %3, align 8
  %76 = getelementptr inbounds nuw %struct.varattrib_1b, ptr %75, i32 0, i32 0
  %77 = load i8, ptr %76, align 1
  %78 = zext i8 %77 to i32
  %79 = and i32 %78, 1
  %80 = icmp eq i32 %79, 1
  br i1 %80, label %81, label %85

81:                                               ; preds = %73
  %82 = load ptr, ptr %3, align 8
  %83 = getelementptr inbounds nuw %struct.varattrib_1b, ptr %82, i32 0, i32 1
  %84 = getelementptr inbounds [0 x i8], ptr %83, i64 0, i64 0
  br label %89

85:                                               ; preds = %73
  %86 = load ptr, ptr %3, align 8
  %87 = getelementptr inbounds nuw %struct.anon, ptr %86, i32 0, i32 1
  %88 = getelementptr inbounds [0 x i8], ptr %87, i64 0, i64 0
  br label %89

89:                                               ; preds = %85, %81
  %90 = phi ptr [ %84, %81 ], [ %88, %85 ]
  %91 = load i64, ptr %4, align 8
  %92 = getelementptr inbounds [33 x i8], ptr %5, i64 0, i64 0
  %93 = call zeroext i1 @pg_md5_hash(ptr noundef %90, i64 noundef %91, ptr noundef %92, ptr noundef %6)
  %94 = zext i1 %93 to i32
  %95 = icmp eq i32 %94, 0
  br i1 %95, label %96, label %109

96:                                               ; preds = %89
  br label %97

97:                                               ; preds = %96
  br i1 true, label %98, label %100

98:                                               ; preds = %97
  %99 = call zeroext i1 @errstart_cold(i32 noundef 21, ptr noundef null) #6
  br i1 %99, label %102, label %106

100:                                              ; preds = %97
  %101 = call zeroext i1 @errstart(i32 noundef 21, ptr noundef null)
  br i1 %101, label %102, label %106

102:                                              ; preds = %100, %98
  %103 = call i32 @errcode(i32 noundef 2600)
  %104 = load ptr, ptr %6, align 8
  %105 = call i32 (ptr, ...) @errmsg(ptr noundef @.str, ptr noundef @.str.1, ptr noundef %104)
  call void @errfinish(ptr noundef @.str.2, i32 noundef 49, ptr noundef @__func__.md5_text)
  br label %106

106:                                              ; preds = %102, %100, %98
  unreachable

107:                                              ; No predecessors!
  br label %108

108:                                              ; preds = %107
  br label %109

109:                                              ; preds = %108, %89
  %110 = getelementptr inbounds [33 x i8], ptr %5, i64 0, i64 0
  %111 = call ptr @cstring_to_text(ptr noundef %110)
  %112 = call i64 @PointerGetDatum(ptr noundef %111)
  call void @llvm.lifetime.end.p0(i64 8, ptr %6) #5
  call void @llvm.lifetime.end.p0(i64 33, ptr %5) #5
  call void @llvm.lifetime.end.p0(i64 8, ptr %4) #5
  call void @llvm.lifetime.end.p0(i64 8, ptr %3) #5
  ret i64 %112
}